ARM GAS  C:\Users\hanad\AppData\Local\Temp\ccl72Xuf.s 			page 1


   1              		.syntax unified
   2              		.cpu cortex-m3
   3              		.fpu softvfp
   4              		.eabi_attribute 20, 1
   5              		.eabi_attribute 21, 1
   6              		.eabi_attribute 23, 3
   7              		.eabi_attribute 24, 1
   8              		.eabi_attribute 25, 1
   9              		.eabi_attribute 26, 1
  10              		.eabi_attribute 30, 1
  11              		.eabi_attribute 34, 1
  12              		.eabi_attribute 18, 4
  13              		.thumb
  14              		.syntax unified
  15              		.file	"RealOne.c"
  16              		.text
  17              	.Ltext0:
  18              		.cfi_sections	.debug_frame
  19              		.section	.text.InitUART,"ax",%progbits
  20              		.align	2
  21              		.global	InitUART
  22              		.thumb
  23              		.thumb_func
  24              		.type	InitUART, %function
  25              	InitUART:
  26              	.LFB64:
  27              		.file 1 "RealOne.c"
   1:RealOne.c     **** #include "project.h"
   2:RealOne.c     **** #include <stdio.h>
   3:RealOne.c     **** 
   4:RealOne.c     **** #define SAMPLE_RATE 44100 // Definerer sample rate som 44100 Hz
   5:RealOne.c     **** #define BUFFER_SIZE 512   // Størrelsen på bufferen sat til 512
   6:RealOne.c     **** #define HANDSHAKE_SIGNAL 0xFFFF // Definerer handshake signal
   7:RealOne.c     **** 
   8:RealOne.c     **** volatile uint16_t adcBuffer[BUFFER_SIZE]; // Buffer til ADC data
   9:RealOne.c     **** volatile int bufferIndex = 0; // Indeks til styring af buffer
  10:RealOne.c     **** 
  11:RealOne.c     **** // Funktionsdeklarationer
  12:RealOne.c     **** void InitADC(void);
  13:RealOne.c     **** void InitSPI(void);
  14:RealOne.c     **** int SendSPI(uint16_t data);
  15:RealOne.c     **** uint16_t ReadADC(void);
  16:RealOne.c     **** void HandleADCConversion(void);
  17:RealOne.c     **** void SendHandshakeSignal(void);
  18:RealOne.c     **** void InitUART(void);
  19:RealOne.c     **** void SendUART(uint16_t data);
  20:RealOne.c     **** 
  21:RealOne.c     **** // Initialiserer UART
  22:RealOne.c     **** void InitUART(void) {
  28              		.loc 1 22 0
  29              		.cfi_startproc
  30              		@ args = 0, pretend = 0, frame = 0
  31              		@ frame_needed = 0, uses_anonymous_args = 0
  32 0000 08B5     		push	{r3, lr}
  33              		.cfi_def_cfa_offset 8
  34              		.cfi_offset 3, -8
  35              		.cfi_offset 14, -4
ARM GAS  C:\Users\hanad\AppData\Local\Temp\ccl72Xuf.s 			page 2


  23:RealOne.c     ****     UART_Start();
  36              		.loc 1 23 0
  37 0002 FFF7FEFF 		bl	UART_Start
  38              	.LVL0:
  39 0006 08BD     		pop	{r3, pc}
  40              		.cfi_endproc
  41              	.LFE64:
  42              		.size	InitUART, .-InitUART
  43              		.section	.text.SendUART,"ax",%progbits
  44              		.align	2
  45              		.global	SendUART
  46              		.thumb
  47              		.thumb_func
  48              		.type	SendUART, %function
  49              	SendUART:
  50              	.LFB65:
  24:RealOne.c     **** }
  25:RealOne.c     **** 
  26:RealOne.c     **** // Sender data over UART
  27:RealOne.c     **** void SendUART(uint16_t data) {
  51              		.loc 1 27 0
  52              		.cfi_startproc
  53              		@ args = 0, pretend = 0, frame = 24
  54              		@ frame_needed = 0, uses_anonymous_args = 0
  55              	.LVL1:
  56 0000 00B5     		push	{lr}
  57              		.cfi_def_cfa_offset 4
  58              		.cfi_offset 14, -4
  59 0002 87B0     		sub	sp, sp, #28
  60              		.cfi_def_cfa_offset 32
  28:RealOne.c     ****     char buffer[20]; // Juster størrelsen af ​​bufferen efter behov
  29:RealOne.c     ****     sprintf(buffer, "%u\r\n", data);
  61              		.loc 1 29 0
  62 0004 0246     		mov	r2, r0
  63 0006 0549     		ldr	r1, .L5
  64 0008 01A8     		add	r0, sp, #4
  65              	.LVL2:
  66 000a FFF7FEFF 		bl	sprintf
  67              	.LVL3:
  30:RealOne.c     ****     UART_PutString(buffer);
  68              		.loc 1 30 0
  69 000e 01A8     		add	r0, sp, #4
  70 0010 FFF7FEFF 		bl	UART_PutString
  71              	.LVL4:
  31:RealOne.c     **** }
  72              		.loc 1 31 0
  73 0014 07B0     		add	sp, sp, #28
  74              		.cfi_def_cfa_offset 4
  75              		@ sp needed
  76 0016 5DF804FB 		ldr	pc, [sp], #4
  77              	.L6:
  78 001a 00BF     		.align	2
  79              	.L5:
  80 001c 00000000 		.word	.LC0
  81              		.cfi_endproc
  82              	.LFE65:
  83              		.size	SendUART, .-SendUART
ARM GAS  C:\Users\hanad\AppData\Local\Temp\ccl72Xuf.s 			page 3


  84              		.section	.text.InitADC,"ax",%progbits
  85              		.align	2
  86              		.global	InitADC
  87              		.thumb
  88              		.thumb_func
  89              		.type	InitADC, %function
  90              	InitADC:
  91              	.LFB66:
  32:RealOne.c     **** 
  33:RealOne.c     **** 
  34:RealOne.c     **** // Initialiserer ADC
  35:RealOne.c     **** void InitADC(void) {
  92              		.loc 1 35 0
  93              		.cfi_startproc
  94              		@ args = 0, pretend = 0, frame = 0
  95              		@ frame_needed = 0, uses_anonymous_args = 0
  96 0000 08B5     		push	{r3, lr}
  97              		.cfi_def_cfa_offset 8
  98              		.cfi_offset 3, -8
  99              		.cfi_offset 14, -4
  36:RealOne.c     ****     ADC_DelSig_1_Start();
 100              		.loc 1 36 0
 101 0002 FFF7FEFF 		bl	ADC_DelSig_1_Start
 102              	.LVL5:
  37:RealOne.c     ****     ADC_DelSig_1_StartConvert();
 103              		.loc 1 37 0
 104 0006 FFF7FEFF 		bl	ADC_DelSig_1_StartConvert
 105              	.LVL6:
 106 000a 08BD     		pop	{r3, pc}
 107              		.cfi_endproc
 108              	.LFE66:
 109              		.size	InitADC, .-InitADC
 110              		.section	.text.InitSPI,"ax",%progbits
 111              		.align	2
 112              		.global	InitSPI
 113              		.thumb
 114              		.thumb_func
 115              		.type	InitSPI, %function
 116              	InitSPI:
 117              	.LFB67:
  38:RealOne.c     **** }
  39:RealOne.c     **** 
  40:RealOne.c     **** // Initialiserer SPI
  41:RealOne.c     **** void InitSPI(void) {
 118              		.loc 1 41 0
 119              		.cfi_startproc
 120              		@ args = 0, pretend = 0, frame = 0
 121              		@ frame_needed = 0, uses_anonymous_args = 0
 122 0000 08B5     		push	{r3, lr}
 123              		.cfi_def_cfa_offset 8
 124              		.cfi_offset 3, -8
 125              		.cfi_offset 14, -4
  42:RealOne.c     ****     SPIS_1_Start();
 126              		.loc 1 42 0
 127 0002 FFF7FEFF 		bl	SPIS_1_Start
 128              	.LVL7:
 129 0006 08BD     		pop	{r3, pc}
ARM GAS  C:\Users\hanad\AppData\Local\Temp\ccl72Xuf.s 			page 4


 130              		.cfi_endproc
 131              	.LFE67:
 132              		.size	InitSPI, .-InitSPI
 133              		.section	.text.ReadADC,"ax",%progbits
 134              		.align	2
 135              		.global	ReadADC
 136              		.thumb
 137              		.thumb_func
 138              		.type	ReadADC, %function
 139              	ReadADC:
 140              	.LFB68:
  43:RealOne.c     **** }
  44:RealOne.c     **** 
  45:RealOne.c     **** // Læser data fra ADC
  46:RealOne.c     **** uint16_t ReadADC(void) {
 141              		.loc 1 46 0
 142              		.cfi_startproc
 143              		@ args = 0, pretend = 0, frame = 0
 144              		@ frame_needed = 0, uses_anonymous_args = 0
 145 0000 08B5     		push	{r3, lr}
 146              		.cfi_def_cfa_offset 8
 147              		.cfi_offset 3, -8
 148              		.cfi_offset 14, -4
  47:RealOne.c     ****     ADC_DelSig_1_IsEndConversion(ADC_DelSig_1_WAIT_FOR_RESULT);
 149              		.loc 1 47 0
 150 0002 0020     		movs	r0, #0
 151 0004 FFF7FEFF 		bl	ADC_DelSig_1_IsEndConversion
 152              	.LVL8:
  48:RealOne.c     ****     return ADC_DelSig_1_GetResult16();
 153              		.loc 1 48 0
 154 0008 FFF7FEFF 		bl	ADC_DelSig_1_GetResult16
 155              	.LVL9:
  49:RealOne.c     **** }
 156              		.loc 1 49 0
 157 000c 80B2     		uxth	r0, r0
 158 000e 08BD     		pop	{r3, pc}
 159              		.cfi_endproc
 160              	.LFE68:
 161              		.size	ReadADC, .-ReadADC
 162              		.section	.text.SendSPI,"ax",%progbits
 163              		.align	2
 164              		.global	SendSPI
 165              		.thumb
 166              		.thumb_func
 167              		.type	SendSPI, %function
 168              	SendSPI:
 169              	.LFB69:
  50:RealOne.c     **** 
  51:RealOne.c     **** // Sender data over SPI
  52:RealOne.c     **** int SendSPI(uint16_t data) {
 170              		.loc 1 52 0
 171              		.cfi_startproc
 172              		@ args = 0, pretend = 0, frame = 0
 173              		@ frame_needed = 0, uses_anonymous_args = 0
 174              	.LVL10:
 175 0000 10B5     		push	{r4, lr}
 176              		.cfi_def_cfa_offset 8
ARM GAS  C:\Users\hanad\AppData\Local\Temp\ccl72Xuf.s 			page 5


 177              		.cfi_offset 4, -8
 178              		.cfi_offset 14, -4
 179 0002 0446     		mov	r4, r0
 180              	.LVL11:
 181              	.L14:
  53:RealOne.c     ****     while (!(SPIS_1_ReadTxStatus() & SPIS_1_STS_TX_FIFO_NOT_FULL));
 182              		.loc 1 53 0 discriminator 1
 183 0004 FFF7FEFF 		bl	SPIS_1_ReadTxStatus
 184              	.LVL12:
 185 0008 10F0020F 		tst	r0, #2
 186 000c FAD0     		beq	.L14
  54:RealOne.c     ****     SPIS_1_WriteTxData(data);
 187              		.loc 1 54 0
 188 000e 2046     		mov	r0, r4
 189 0010 FFF7FEFF 		bl	SPIS_1_WriteTxData
 190              	.LVL13:
 191              	.L15:
  55:RealOne.c     ****     while (!(SPIS_1_ReadTxStatus() & SPIS_1_STS_SPI_DONE));
 192              		.loc 1 55 0 discriminator 1
 193 0014 FFF7FEFF 		bl	SPIS_1_ReadTxStatus
 194              	.LVL14:
 195 0018 10F0010F 		tst	r0, #1
 196 001c FAD0     		beq	.L15
  56:RealOne.c     ****     return (SPIS_1_ReadTxStatus() & SPIS_1_STS_SPI_DONE) ? 1 : 0;
 197              		.loc 1 56 0
 198 001e FFF7FEFF 		bl	SPIS_1_ReadTxStatus
 199              	.LVL15:
  57:RealOne.c     **** }
 200              		.loc 1 57 0
 201 0022 00F00100 		and	r0, r0, #1
 202 0026 10BD     		pop	{r4, pc}
 203              		.cfi_endproc
 204              	.LFE69:
 205              		.size	SendSPI, .-SendSPI
 206              		.section	.text.HandleADCConversion,"ax",%progbits
 207              		.align	2
 208              		.global	HandleADCConversion
 209              		.thumb
 210              		.thumb_func
 211              		.type	HandleADCConversion, %function
 212              	HandleADCConversion:
 213              	.LFB70:
  58:RealOne.c     **** 
  59:RealOne.c     **** // Håndterer ADC konvertering
  60:RealOne.c     **** void HandleADCConversion(void) {
 214              		.loc 1 60 0
 215              		.cfi_startproc
 216              		@ args = 0, pretend = 0, frame = 0
 217              		@ frame_needed = 0, uses_anonymous_args = 0
 218 0000 08B5     		push	{r3, lr}
 219              		.cfi_def_cfa_offset 8
 220              		.cfi_offset 3, -8
 221              		.cfi_offset 14, -4
  61:RealOne.c     ****     uint32 status = ADC_DelSig_1_IsEndConversion(ADC_DelSig_1_RETURN_STATUS);
 222              		.loc 1 61 0
 223 0002 0120     		movs	r0, #1
 224 0004 FFF7FEFF 		bl	ADC_DelSig_1_IsEndConversion
ARM GAS  C:\Users\hanad\AppData\Local\Temp\ccl72Xuf.s 			page 6


 225              	.LVL16:
  62:RealOne.c     ****     if (status == ADC_DelSig_1_RETURN_STATUS) {
 226              		.loc 1 62 0
 227 0008 0128     		cmp	r0, #1
 228 000a 02D1     		bne	.L18
  63:RealOne.c     ****         LED_Write(1); // Tænder LED ved succesfuld konvertering
 229              		.loc 1 63 0
 230 000c FFF7FEFF 		bl	LED_Write
 231              	.LVL17:
 232 0010 08BD     		pop	{r3, pc}
 233              	.LVL18:
 234              	.L18:
  64:RealOne.c     ****     } else {
  65:RealOne.c     ****         LED_Write(0); // Slukker LED hvis fejl
 235              		.loc 1 65 0
 236 0012 0020     		movs	r0, #0
 237              	.LVL19:
 238 0014 FFF7FEFF 		bl	LED_Write
 239              	.LVL20:
 240 0018 08BD     		pop	{r3, pc}
 241              		.cfi_endproc
 242              	.LFE70:
 243              		.size	HandleADCConversion, .-HandleADCConversion
 244 001a 00BF     		.section	.text.SendHandshakeSignal,"ax",%progbits
 245              		.align	2
 246              		.global	SendHandshakeSignal
 247              		.thumb
 248              		.thumb_func
 249              		.type	SendHandshakeSignal, %function
 250              	SendHandshakeSignal:
 251              	.LFB71:
  66:RealOne.c     ****     }
  67:RealOne.c     **** }
  68:RealOne.c     **** 
  69:RealOne.c     **** // Sender handshake signal over SPI
  70:RealOne.c     **** void SendHandshakeSignal(void) {
 252              		.loc 1 70 0
 253              		.cfi_startproc
 254              		@ args = 0, pretend = 0, frame = 0
 255              		@ frame_needed = 0, uses_anonymous_args = 0
 256 0000 08B5     		push	{r3, lr}
 257              		.cfi_def_cfa_offset 8
 258              		.cfi_offset 3, -8
 259              		.cfi_offset 14, -4
  71:RealOne.c     ****     SendSPI(HANDSHAKE_SIGNAL);
 260              		.loc 1 71 0
 261 0002 4FF6FF70 		movw	r0, #65535
 262 0006 FFF7FEFF 		bl	SendSPI
 263              	.LVL21:
  72:RealOne.c     ****     CyDelay(10); // Lille forsinkelse for at sikre RPI er klar
 264              		.loc 1 72 0
 265 000a 0A20     		movs	r0, #10
 266 000c FFF7FEFF 		bl	CyDelay
 267              	.LVL22:
 268 0010 08BD     		pop	{r3, pc}
 269              		.cfi_endproc
 270              	.LFE71:
ARM GAS  C:\Users\hanad\AppData\Local\Temp\ccl72Xuf.s 			page 7


 271              		.size	SendHandshakeSignal, .-SendHandshakeSignal
 272 0012 00BF     		.section	.text.main,"ax",%progbits
 273              		.align	2
 274              		.global	main
 275              		.thumb
 276              		.thumb_func
 277              		.type	main, %function
 278              	main:
 279              	.LFB72:
  73:RealOne.c     **** }
  74:RealOne.c     **** 
  75:RealOne.c     **** int main(void) {
 280              		.loc 1 75 0
 281              		.cfi_startproc
 282              		@ args = 0, pretend = 0, frame = 0
 283              		@ frame_needed = 0, uses_anonymous_args = 0
 284 0000 10B5     		push	{r4, lr}
 285              		.cfi_def_cfa_offset 8
 286              		.cfi_offset 4, -8
 287              		.cfi_offset 14, -4
  76:RealOne.c     ****     CyGlobalIntEnable; // Aktiverer globale interrupts
 288              		.loc 1 76 0
 289              		.syntax unified
 290              	@ 76 "RealOne.c" 1
 291 0002 62B6     		CPSIE   i
 292              	@ 0 "" 2
  77:RealOne.c     ****     InitADC(); // Initialiserer ADC
 293              		.loc 1 77 0
 294              		.thumb
 295              		.syntax unified
 296 0004 FFF7FEFF 		bl	InitADC
 297              	.LVL23:
  78:RealOne.c     ****     InitSPI(); // Initialiserer SPI
 298              		.loc 1 78 0
 299 0008 FFF7FEFF 		bl	InitSPI
 300              	.LVL24:
  79:RealOne.c     ****     InitUART(); // Tilføj UART-initialisering her
 301              		.loc 1 79 0
 302 000c FFF7FEFF 		bl	InitUART
 303              	.LVL25:
 304              	.L24:
  80:RealOne.c     **** 
  81:RealOne.c     **** 
  82:RealOne.c     ****     for (;;) {
  83:RealOne.c     ****         if (bufferIndex < BUFFER_SIZE) {
 305              		.loc 1 83 0
 306 0010 124B     		ldr	r3, .L30
 307 0012 1B68     		ldr	r3, [r3]
 308 0014 B3F5007F 		cmp	r3, #512
 309 0018 0EDA     		bge	.L25
  84:RealOne.c     ****             adcBuffer[bufferIndex++] = ReadADC(); // Læser ADC og gemmer i buffer
 310              		.loc 1 84 0
 311 001a 104B     		ldr	r3, .L30
 312 001c 1C68     		ldr	r4, [r3]
 313 001e 621C     		adds	r2, r4, #1
 314 0020 1A60     		str	r2, [r3]
 315 0022 FFF7FEFF 		bl	ReadADC
ARM GAS  C:\Users\hanad\AppData\Local\Temp\ccl72Xuf.s 			page 8


 316              	.LVL26:
 317 0026 0E4B     		ldr	r3, .L30+4
 318 0028 23F81400 		strh	r0, [r3, r4, lsl #1]	@ movhi
  85:RealOne.c     ****             HandleADCConversion();
 319              		.loc 1 85 0
 320 002c FFF7FEFF 		bl	HandleADCConversion
 321              	.LVL27:
  86:RealOne.c     ****             CyDelay(1); // Forsinkelse mellem ADC aflæsninger
 322              		.loc 1 86 0
 323 0030 0120     		movs	r0, #1
 324 0032 FFF7FEFF 		bl	CyDelay
 325              	.LVL28:
 326 0036 EBE7     		b	.L24
 327              	.L25:
  87:RealOne.c     ****         } else {
  88:RealOne.c     ****             SendHandshakeSignal(); // Sender handshake signal
 328              		.loc 1 88 0
 329 0038 FFF7FEFF 		bl	SendHandshakeSignal
 330              	.LVL29:
 331              	.LBB2:
  89:RealOne.c     ****             for (int i = 0; i < BUFFER_SIZE; i++) {
 332              		.loc 1 89 0
 333 003c 0024     		movs	r4, #0
 334 003e 06E0     		b	.L27
 335              	.LVL30:
 336              	.L28:
  90:RealOne.c     ****                 if (!SendSPI(adcBuffer[i])) {
 337              		.loc 1 90 0
 338 0040 074B     		ldr	r3, .L30+4
 339 0042 33F81400 		ldrh	r0, [r3, r4, lsl #1]
 340 0046 80B2     		uxth	r0, r0
 341 0048 FFF7FEFF 		bl	SendSPI
 342              	.LVL31:
  89:RealOne.c     ****             for (int i = 0; i < BUFFER_SIZE; i++) {
 343              		.loc 1 89 0
 344 004c 0134     		adds	r4, r4, #1
 345              	.LVL32:
 346              	.L27:
  89:RealOne.c     ****             for (int i = 0; i < BUFFER_SIZE; i++) {
 347              		.loc 1 89 0 is_stmt 0 discriminator 1
 348 004e B4F5007F 		cmp	r4, #512
 349 0052 F5DB     		blt	.L28
 350              	.LBE2:
  91:RealOne.c     ****                     // Håndter SPI transmissionsfejl
  92:RealOne.c     ****                     // Tilføj passende fejlhåndtering her
  93:RealOne.c     ****                 }
  94:RealOne.c     ****             }
  95:RealOne.c     ****             bufferIndex = 0; // Nulstiller buffer index
 351              		.loc 1 95 0 is_stmt 1
 352 0054 0022     		movs	r2, #0
 353 0056 014B     		ldr	r3, .L30
 354 0058 1A60     		str	r2, [r3]
 355 005a D9E7     		b	.L24
 356              	.L31:
 357              		.align	2
 358              	.L30:
 359 005c 00000000 		.word	.LANCHOR0
ARM GAS  C:\Users\hanad\AppData\Local\Temp\ccl72Xuf.s 			page 9


 360 0060 00000000 		.word	adcBuffer
 361              		.cfi_endproc
 362              	.LFE72:
 363              		.size	main, .-main
 364              		.global	bufferIndex
 365              		.comm	adcBuffer,1024,4
 366              		.section	.rodata.str1.4,"aMS",%progbits,1
 367              		.align	2
 368              	.LC0:
 369 0000 25750D0A 		.ascii	"%u\015\012\000"
 369      00
 370              		.bss
 371              		.align	2
 372              		.set	.LANCHOR0,. + 0
 373              		.type	bufferIndex, %object
 374              		.size	bufferIndex, 4
 375              	bufferIndex:
 376 0000 00000000 		.space	4
 377              		.text
 378              	.Letext0:
 379              		.file 2 "c:\\program files (x86)\\cypress\\psoc creator\\4.4\\psoc creator\\import\\gnu\\arm\\5.4.
 380              		.file 3 "c:\\program files (x86)\\cypress\\psoc creator\\4.4\\psoc creator\\import\\gnu\\arm\\5.4.
 381              		.file 4 "Generated_Source\\PSoC5/cytypes.h"
 382              		.file 5 "Generated_Source\\PSoC5/core_cm3.h"
 383              		.file 6 "c:\\program files (x86)\\cypress\\psoc creator\\4.4\\psoc creator\\import\\gnu\\arm\\5.4.
 384              		.file 7 "Generated_Source\\PSoC5/ADC_DelSig_1.h"
 385              		.file 8 "Generated_Source\\PSoC5/SPIS_1.h"
 386              		.file 9 "Generated_Source\\PSoC5/LED.h"
 387              		.file 10 "Generated_Source\\PSoC5/CyLib.h"