ARM GAS  C:\Users\mikai\AppData\Local\Temp\ccfuXtyp.s 			page 1


   1              		.syntax unified
   2              		.cpu cortex-m3
   3              		.fpu softvfp
   4              		.eabi_attribute 20, 1
   5              		.eabi_attribute 21, 1
   6              		.eabi_attribute 23, 3
   7              		.eabi_attribute 24, 1
   8              		.eabi_attribute 25, 1
   9              		.eabi_attribute 26, 1
  10              		.eabi_attribute 30, 1
  11              		.eabi_attribute 34, 1
  12              		.eabi_attribute 18, 4
  13              		.thumb
  14              		.syntax unified
  15              		.file	"adc.c"
  16              		.text
  17              	.Ltext0:
  18              		.cfi_sections	.debug_frame
  19              		.section	.text.InitADC,"ax",%progbits
  20              		.align	2
  21              		.global	InitADC
  22              		.thumb
  23              		.thumb_func
  24              		.type	InitADC, %function
  25              	InitADC:
  26              	.LFB63:
  27              		.file 1 "adc.c"
   1:adc.c         **** /* ========================================
   2:adc.c         ****  *
   3:adc.c         ****  * Copyright YOUR COMPANY, THE YEAR
   4:adc.c         ****  * All Rights Reserved
   5:adc.c         ****  * UNPUBLISHED, LICENSED SOFTWARE.
   6:adc.c         ****  *
   7:adc.c         ****  * CONFIDENTIAL AND PROPRIETARY INFORMATION
   8:adc.c         ****  * WHICH IS THE PROPERTY OF your company.
   9:adc.c         ****  *
  10:adc.c         ****  * ========================================
  11:adc.c         **** */
  12:adc.c         **** 
  13:adc.c         **** #include "adc.h"
  14:adc.c         **** 
  15:adc.c         **** // Initialiserer ADC
  16:adc.c         **** void InitADC(void) { 
  28              		.loc 1 16 0
  29              		.cfi_startproc
  30              		@ args = 0, pretend = 0, frame = 0
  31              		@ frame_needed = 0, uses_anonymous_args = 0
  32 0000 08B5     		push	{r3, lr}
  33              		.cfi_def_cfa_offset 8
  34              		.cfi_offset 3, -8
  35              		.cfi_offset 14, -4
  17:adc.c         ****     ADC_DelSig_1_Start();        // Starter ADC
  36              		.loc 1 17 0
  37 0002 FFF7FEFF 		bl	ADC_DelSig_1_Start
  38              	.LVL0:
  18:adc.c         ****     ADC_DelSig_1_StartConvert(); // Starter konvertering
  39              		.loc 1 18 0
ARM GAS  C:\Users\mikai\AppData\Local\Temp\ccfuXtyp.s 			page 2


  40 0006 FFF7FEFF 		bl	ADC_DelSig_1_StartConvert
  41              	.LVL1:
  42 000a 08BD     		pop	{r3, pc}
  43              		.cfi_endproc
  44              	.LFE63:
  45              		.size	InitADC, .-InitADC
  46              		.section	.text.ReadADC,"ax",%progbits
  47              		.align	2
  48              		.global	ReadADC
  49              		.thumb
  50              		.thumb_func
  51              		.type	ReadADC, %function
  52              	ReadADC:
  53              	.LFB64:
  19:adc.c         **** }
  20:adc.c         **** 
  21:adc.c         **** // Læser data fra ADC
  22:adc.c         **** uint16_t ReadADC(void) {
  54              		.loc 1 22 0
  55              		.cfi_startproc
  56              		@ args = 0, pretend = 0, frame = 0
  57              		@ frame_needed = 0, uses_anonymous_args = 0
  58 0000 08B5     		push	{r3, lr}
  59              		.cfi_def_cfa_offset 8
  60              		.cfi_offset 3, -8
  61              		.cfi_offset 14, -4
  23:adc.c         ****     ADC_DelSig_1_IsEndConversion(ADC_DelSig_1_WAIT_FOR_RESULT); // Venter på konvertering
  62              		.loc 1 23 0
  63 0002 0020     		movs	r0, #0
  64 0004 FFF7FEFF 		bl	ADC_DelSig_1_IsEndConversion
  65              	.LVL2:
  24:adc.c         ****     return ADC_DelSig_1_GetResult16();                          // Returnerer resultat
  66              		.loc 1 24 0
  67 0008 FFF7FEFF 		bl	ADC_DelSig_1_GetResult16
  68              	.LVL3:
  25:adc.c         **** }
  69              		.loc 1 25 0
  70 000c 80B2     		uxth	r0, r0
  71 000e 08BD     		pop	{r3, pc}
  72              		.cfi_endproc
  73              	.LFE64:
  74              		.size	ReadADC, .-ReadADC
  75              		.section	.text.HandleADCConversion,"ax",%progbits
  76              		.align	2
  77              		.global	HandleADCConversion
  78              		.thumb
  79              		.thumb_func
  80              		.type	HandleADCConversion, %function
  81              	HandleADCConversion:
  82              	.LFB65:
  26:adc.c         **** 
  27:adc.c         **** // Håndterer ADC konvertering
  28:adc.c         **** void HandleADCConversion(void) {
  83              		.loc 1 28 0
  84              		.cfi_startproc
  85              		@ args = 0, pretend = 0, frame = 0
  86              		@ frame_needed = 0, uses_anonymous_args = 0
ARM GAS  C:\Users\mikai\AppData\Local\Temp\ccfuXtyp.s 			page 3


  87 0000 08B5     		push	{r3, lr}
  88              		.cfi_def_cfa_offset 8
  89              		.cfi_offset 3, -8
  90              		.cfi_offset 14, -4
  29:adc.c         ****     uint32 status = ADC_DelSig_1_IsEndConversion(ADC_DelSig_1_RETURN_STATUS); // Tjekker status på
  91              		.loc 1 29 0
  92 0002 0120     		movs	r0, #1
  93 0004 FFF7FEFF 		bl	ADC_DelSig_1_IsEndConversion
  94              	.LVL4:
  30:adc.c         ****     if (status == ADC_DelSig_1_RETURN_STATUS) {                               // Hvis succesfuld
  95              		.loc 1 30 0
  96 0008 0128     		cmp	r0, #1
  97 000a 02D1     		bne	.L6
  31:adc.c         ****         LED_Write(1);                                                         // Tænder LED ved su
  98              		.loc 1 31 0
  99 000c FFF7FEFF 		bl	LED_Write
 100              	.LVL5:
 101 0010 08BD     		pop	{r3, pc}
 102              	.LVL6:
 103              	.L6:
  32:adc.c         ****     } else {
  33:adc.c         ****         LED_Write(0);                                                         // Slukker LED hvis f
 104              		.loc 1 33 0
 105 0012 0020     		movs	r0, #0
 106              	.LVL7:
 107 0014 FFF7FEFF 		bl	LED_Write
 108              	.LVL8:
 109 0018 08BD     		pop	{r3, pc}
 110              		.cfi_endproc
 111              	.LFE65:
 112              		.size	HandleADCConversion, .-HandleADCConversion
 113 001a 00BF     		.text
 114              	.Letext0:
 115              		.file 2 "c:\\program files (x86)\\cypress\\psoc creator\\4.4\\psoc creator\\import\\gnu\\arm\\5.4.
 116              		.file 3 "c:\\program files (x86)\\cypress\\psoc creator\\4.4\\psoc creator\\import\\gnu\\arm\\5.4.
 117              		.file 4 "Generated_Source\\PSoC5/cytypes.h"
 118              		.file 5 "Generated_Source\\PSoC5/ADC_DelSig_1.h"
 119              		.file 6 "Generated_Source\\PSoC5/LED.h"
 120              		.file 7 "Generated_Source\\PSoC5/core_cm3.h"