ARM GAS  C:\Users\mikai\AppData\Local\Temp\cce10hkD.s 			page 1


   1              		.syntax unified
   2              		.cpu cortex-m3
   3              		.fpu softvfp
   4              		.eabi_attribute 20, 1
   5              		.eabi_attribute 21, 1
   6              		.eabi_attribute 23, 3
   7              		.eabi_attribute 24, 1
   8              		.eabi_attribute 25, 1
   9              		.eabi_attribute 26, 1
  10              		.eabi_attribute 30, 1
  11              		.eabi_attribute 34, 1
  12              		.eabi_attribute 18, 4
  13              		.thumb
  14              		.syntax unified
  15              		.file	"spi.c"
  16              		.text
  17              	.Ltext0:
  18              		.cfi_sections	.debug_frame
  19              		.section	.text.InitSPI,"ax",%progbits
  20              		.align	2
  21              		.global	InitSPI
  22              		.thumb
  23              		.thumb_func
  24              		.type	InitSPI, %function
  25              	InitSPI:
  26              	.LFB63:
  27              		.file 1 "spi.c"
   1:spi.c         **** /* ========================================
   2:spi.c         ****  *
   3:spi.c         ****  * Copyright YOUR COMPANY, THE YEAR
   4:spi.c         ****  * All Rights Reserved
   5:spi.c         ****  * UNPUBLISHED, LICENSED SOFTWARE.
   6:spi.c         ****  *
   7:spi.c         ****  * CONFIDENTIAL AND PROPRIETARY INFORMATION
   8:spi.c         ****  * WHICH IS THE PROPERTY OF your company.
   9:spi.c         ****  *
  10:spi.c         ****  * ========================================
  11:spi.c         **** */
  12:spi.c         **** 
  13:spi.c         **** #include "spi.h"
  14:spi.c         **** 
  15:spi.c         **** // Initialiserer SPI
  16:spi.c         **** void InitSPI(void) {
  28              		.loc 1 16 0
  29              		.cfi_startproc
  30              		@ args = 0, pretend = 0, frame = 0
  31              		@ frame_needed = 0, uses_anonymous_args = 0
  32 0000 08B5     		push	{r3, lr}
  33              		.cfi_def_cfa_offset 8
  34              		.cfi_offset 3, -8
  35              		.cfi_offset 14, -4
  17:spi.c         ****     SPIS_1_Start(); // Starter SPI
  36              		.loc 1 17 0
  37 0002 FFF7FEFF 		bl	SPIS_1_Start
  38              	.LVL0:
  39 0006 08BD     		pop	{r3, pc}
  40              		.cfi_endproc
ARM GAS  C:\Users\mikai\AppData\Local\Temp\cce10hkD.s 			page 2


  41              	.LFE63:
  42              		.size	InitSPI, .-InitSPI
  43              		.section	.text.SendSPI,"ax",%progbits
  44              		.align	2
  45              		.global	SendSPI
  46              		.thumb
  47              		.thumb_func
  48              		.type	SendSPI, %function
  49              	SendSPI:
  50              	.LFB64:
  18:spi.c         **** }
  19:spi.c         **** 
  20:spi.c         **** // Sender data over SPI
  21:spi.c         **** int SendSPI(uint16_t data) {
  51              		.loc 1 21 0
  52              		.cfi_startproc
  53              		@ args = 0, pretend = 0, frame = 0
  54              		@ frame_needed = 0, uses_anonymous_args = 0
  55              	.LVL1:
  56 0000 10B5     		push	{r4, lr}
  57              		.cfi_def_cfa_offset 8
  58              		.cfi_offset 4, -8
  59              		.cfi_offset 14, -4
  60 0002 0446     		mov	r4, r0
  61              	.LVL2:
  62              	.L4:
  22:spi.c         ****     while (!(SPIS_1_ReadTxStatus() & SPIS_1_STS_TX_FIFO_NOT_FULL)); // Venter på at TX FIFO ikke e
  63              		.loc 1 22 0 discriminator 1
  64 0004 FFF7FEFF 		bl	SPIS_1_ReadTxStatus
  65              	.LVL3:
  66 0008 10F0020F 		tst	r0, #2
  67 000c FAD0     		beq	.L4
  23:spi.c         ****     SPIS_1_WriteTxData(data);                                       // Skriver data til TX FIFO
  68              		.loc 1 23 0
  69 000e 2046     		mov	r0, r4
  70 0010 FFF7FEFF 		bl	SPIS_1_WriteTxData
  71              	.LVL4:
  72              	.L5:
  24:spi.c         ****     while (!(SPIS_1_ReadTxStatus() & SPIS_1_STS_SPI_DONE));         // Venter på at SPI er færdig
  73              		.loc 1 24 0 discriminator 1
  74 0014 FFF7FEFF 		bl	SPIS_1_ReadTxStatus
  75              	.LVL5:
  76 0018 10F0010F 		tst	r0, #1
  77 001c FAD0     		beq	.L5
  25:spi.c         ****     return (SPIS_1_ReadTxStatus() & SPIS_1_STS_SPI_DONE) ? 1 : 0;   // Returnerer 1 hvis succesfuld
  78              		.loc 1 25 0
  79 001e FFF7FEFF 		bl	SPIS_1_ReadTxStatus
  80              	.LVL6:
  26:spi.c         **** }
  81              		.loc 1 26 0
  82 0022 00F00100 		and	r0, r0, #1
  83 0026 10BD     		pop	{r4, pc}
  84              		.cfi_endproc
  85              	.LFE64:
  86              		.size	SendSPI, .-SendSPI
  87              		.section	.text.SendHandshakeSignal,"ax",%progbits
  88              		.align	2
ARM GAS  C:\Users\mikai\AppData\Local\Temp\cce10hkD.s 			page 3


  89              		.global	SendHandshakeSignal
  90              		.thumb
  91              		.thumb_func
  92              		.type	SendHandshakeSignal, %function
  93              	SendHandshakeSignal:
  94              	.LFB65:
  27:spi.c         **** 
  28:spi.c         **** // Sender handshake signal over SPI
  29:spi.c         **** void SendHandshakeSignal(void) {
  95              		.loc 1 29 0
  96              		.cfi_startproc
  97              		@ args = 0, pretend = 0, frame = 0
  98              		@ frame_needed = 0, uses_anonymous_args = 0
  99 0000 08B5     		push	{r3, lr}
 100              		.cfi_def_cfa_offset 8
 101              		.cfi_offset 3, -8
 102              		.cfi_offset 14, -4
  30:spi.c         ****     SendSPI(HANDSHAKE_SIGNAL);  // Sender handshake signal
 103              		.loc 1 30 0
 104 0002 4FF6FF70 		movw	r0, #65535
 105 0006 FFF7FEFF 		bl	SendSPI
 106              	.LVL7:
  31:spi.c         ****     CyDelay(5);                 // Lille forsinkelse for at sikre RPI er klar
 107              		.loc 1 31 0
 108 000a 0520     		movs	r0, #5
 109 000c FFF7FEFF 		bl	CyDelay
 110              	.LVL8:
 111 0010 08BD     		pop	{r3, pc}
 112              		.cfi_endproc
 113              	.LFE65:
 114              		.size	SendHandshakeSignal, .-SendHandshakeSignal
 115 0012 00BF     		.text
 116              	.Letext0:
 117              		.file 2 "c:\\program files (x86)\\cypress\\psoc creator\\4.4\\psoc creator\\import\\gnu\\arm\\5.4.
 118              		.file 3 "c:\\program files (x86)\\cypress\\psoc creator\\4.4\\psoc creator\\import\\gnu\\arm\\5.4.
 119              		.file 4 "Generated_Source\\PSoC5/cytypes.h"
 120              		.file 5 "Generated_Source\\PSoC5/SPIS_1.h"
 121              		.file 6 "Generated_Source\\PSoC5/CyLib.h"
 122              		.file 7 "Generated_Source\\PSoC5/core_cm3.h"